(lp0
(lp1
V84214486
p2
aa(lp3
V279629198
p4
aa(lp5
V145139962
p6
aa(lp7
V267947569
p8
aa(lp9
V281380712
p10
aa(lp11
V271642263
p12
aa(lp13
V276510232
p14
aa(lp15
V285313459
p16
aa(lp17
V286858815
p18
aa(lp19
V167975585
p20
aa(lp21
V274785986
p22
aa(lp23
V285899551
p24
aa(lp25
V280670837
p26
aa(lp27
V277611503
p28
aa(lp29
V275920721
p30
aa(lp31
V266667114
p32
aa(lp33
V197780484
p34
aa(lp35
V119877350
p36
aa(lp37
V286788374
p38
aa(lp39
V278941552
p40
aa(lp41
V283055147
p42
aa(lp43
V287001819
p44
aa(lp45
V101878639
p46
aa(lp47
V199446252
p48
aa(lp49
V287114069
p50
aa(lp51
V229890998
p52
aa(lp53
V287236387
p54
aa(lp55
V254549546
p56
aa(lp57
V285840174
p58
aa(lp59
V287229342
p60
aa(lp61
V286888282
p62
aa(lp63
V279877767
p64
aa(lp65
V271348032
p66
aa(lp67
V284657449
p68
aa(lp69
V267937166
p70
aa(lp71
V171297561
p72
aa(lp73
V259380325
p74
aa(lp75
V42455435
p76
aa(lp77
V205708652
p78
aa(lp79
V266363518
p80
aa(lp81
V162948443
p82
aa(lp83
V286373394
p84
aa(lp85
V275517021
p86
aa(lp87
V216693025
p88
aa(lp89
V287384935
p90
aa(lp91
V138263865
p92
aa(lp93
V284574415
p94
aa(lp95
V283010677
p96
aa(lp97
V286911649
p98
aa(lp99
V285526741
p100
aa(lp101
V256668170
p102
aa(lp103
V285814594
p104
aa(lp105
V285731614
p106
aa(lp107
V221420641
p108
aa(lp109
V266943160
p110
aa(lp111
V286313607
p112
aa(lp113
V263707928
p114
aa(lp115
V284373096
p116
aa(lp117
V279353484
p118
aa(lp119
V282664655
p120
aa(lp121
V285722023
p122
aa(lp123
V142742014
p124
aa(lp125
V272458542
p126
aa(lp127
V275454113
p128
aa(lp129
V287156038
p130
aa(lp131
V287528648
p132
aa(lp133
V283705344
p134
aa(lp135
V256423473
p136
aa(lp137
V287650531
p138
aa(lp139
V286602413
p140
aa(lp141
V286677170
p142
aa(lp143
V277814427
p144
aa(lp145
V285514988
p146
aa(lp147
V286462794
p148
aa(lp149
V271123251
p150
aa(lp151
V285370455
p152
aa(lp153
V281585581
p154
aa(lp155
V280536112
p156
aa(lp157
V213955571
p158
aa(lp159
V286290897
p160
aa(lp161
V285442887
p162
aa(lp163
V169047923
p164
aa(lp165
V271124543
p166
aa(lp167
V266852906
p168
aa(lp169
V276152123
p170
aa(lp171
V132075904
p172
aa(lp173
V186383728
p174
aa(lp175
V271449127
p176
aa(lp177
V283151917
p178
aa(lp179
V283470276
p180
aa(lp181
V257379574
p182
aa(lp183
V285442692
p184
aa(lp185
V280859123
p186
aa(lp187
V283549660
p188
aa(lp189
V270911804
p190
aa(lp191
V283953884
p192
aa(lp193
V159373357
p194
aa.