(lp0
(lp1
V84214486
p2
aa(lp3
V279629198
p4
aa(lp5
V145139962
p6
aa(lp7
V267947569
p8
aa(lp9
V281380712
p10
aa(lp11
V271642263
p12
aa(lp13
V276510232
p14
aa(lp15
V285313459
p16
aa(lp17
V286858815
p18
aa(lp19
V167975585
p20
aa(lp21
V274785986
p22
aa(lp23
V285899551
p24
aa(lp25
V280670837
p26
aa(lp27
V277611503
p28
aa(lp29
V275920721
p30
aa(lp31
V266667114
p32
aa(lp33
V197780484
p34
aa(lp35
V119877350
p36
aa(lp37
V286788374
p38
aa(lp39
V278941552
p40
aa(lp41
V283055147
p42
aa(lp43
V287001819
p44
aa(lp45
V101878639
p46
aa(lp47
V199446252
p48
aa(lp49
V287114069
p50
aa(lp51
V229890998
p52
aa(lp53
V287236387
p54
aa(lp55
V254549546
p56
aa(lp57
V285840174
p58
aa(lp59
V287229342
p60
aa(lp61
V286888282
p62
aa(lp63
V279877767
p64
aa(lp65
V271348032
p66
aa(lp67
V284657449
p68
aa(lp69
V267937166
p70
aa(lp71
V171297561
p72
aa(lp73
V259380325
p74
aa(lp75
V42455435
p76
aa(lp77
V205708652
p78
aa(lp79
V266363518
p80
aa(lp81
V162948443
p82
aa(lp83
V286373394
p84
aa.